; Function Attrs: mustprogress uwtable
define hidden noalias noundef ptr @_ZN7datalog21table_relation_plugin24mk_filter_by_negation_fnERKNS_13relation_baseES3_jPKjS5_(ptr noundef nonnull readonly align 8 captures(none) dereferenceable(48) %0, ptr noundef nonnull readonly align 8 captures(none) dereferenceable(28) %1, ptr noundef nonnull readonly align 8 captures(none) dereferenceable(28) %2, i32 noundef %3, ptr noundef %4, ptr noundef %5) unnamed_addr #3 align 2 personality ptr @__gxx_personality_v0 {
  %7 = getelementptr inbounds nuw i8, ptr %1, i64 8
  %8 = load ptr, ptr %7, align 8, !tbaa !54
  %9 = getelementptr inbounds nuw i8, ptr %8, i64 32
  %10 = load i32, ptr %9, align 8, !tbaa !55
  %11 = icmp eq i32 %10, 1
  br i1 %11, label %12, label %28

12:                                               ; preds = %6
  %13 = getelementptr inbounds nuw i8, ptr %2, i64 8
  %14 = load ptr, ptr %13, align 8, !tbaa !54
  %15 = getelementptr inbounds nuw i8, ptr %14, i64 32
  %16 = load i32, ptr %15, align 8, !tbaa !55
  %17 = icmp eq i32 %16, 1
  br i1 %17, label %18, label %28

18:                                               ; preds = %12
  %19 = getelementptr inbounds nuw i8, ptr %0, i64 24
  %20 = load ptr, ptr %19, align 8, !tbaa !23
  %21 = getelementptr inbounds nuw i8, ptr %1, i64 32
  %22 = load ptr, ptr %21, align 8, !tbaa !47
  %23 = getelementptr inbounds nuw i8, ptr %2, i64 32
  %24 = load ptr, ptr %23, align 8, !tbaa !47
  %25 = tail call noundef ptr @_ZN7datalog16relation_manager24mk_filter_by_negation_fnERKNS_10table_baseES3_jPKjS5_(ptr noundef nonnull align 8 dereferenceable(200) %20, ptr noundef nonnull align 8 dereferenceable(36) %22, ptr noundef nonnull align 8 dereferenceable(36) %24, i32 noundef %3, ptr noundef %4, ptr noundef %5)
  %26 = tail call noalias noundef ptr @_ZN6memory8allocateEm(i64 noundef 16)
  store ptr getelementptr inbounds nuw inrange(-16, 24) (i8, ptr @_ZTVN7datalog21table_relation_plugin25tr_intersection_filter_fnE, i64 16), ptr %26, align 8, !tbaa !32
  %27 = getelementptr inbounds nuw i8, ptr %26, i64 8
  store ptr %25, ptr %27, align 8, !tbaa !75
  br label %28

28:                                               ; preds = %6, %12, %18
  %.0 = phi ptr [ %26, %18 ], [ null, %12 ], [ null, %6 ]
  ret ptr %.0
}